target datalayout = "e-m:e-p270:32:32-p271:32:32-p272:64:64-i64:64-i128:128-f80:128-n8:16:32:64-S128"
target triple = "x86_64-pc-linux-gnu"

%struct.ReplicationSlotCtlData = type { [1 x %struct.ReplicationSlot] }
%struct.ReplicationSlot = type { i8, i8, i32, i8, i8, i32, i32, %struct.ReplicationSlotPersistentData, %struct.LWLock, %struct.ConditionVariable, i32, i64, i64, i64, i64, i64 }
%struct.ReplicationSlotPersistentData = type { %struct.nameData, i32, i32, i32, i32, i64, i32, i64, i64, i8, %struct.nameData, i8, i8 }
%struct.nameData = type { [64 x i8] }
%struct.LWLock = type { i16, %struct.pg_atomic_uint32, %struct.proclist_head }
%struct.pg_atomic_uint32 = type { i32 }
%struct.proclist_head = type { i32, i32 }
%struct.ConditionVariable = type { i8, %struct.proclist_head }
%union.LWLockPadded = type { %struct.LWLock, [112 x i8] }

@ReplicationSlotCtl = dso_local global ptr null, align 8
@max_replication_slots = dso_local global i32 10, align 4
@.str.6 = private unnamed_addr constant [7 x i8] c"slot.c\00", align 1
@MainLWLockArray = external global ptr, align 8
@__func__.ReplicationSlotsComputeRequiredLSN = private unnamed_addr constant [35 x i8] c"ReplicationSlotsComputeRequiredLSN\00", align 1

; Function Attrs: inlinehint nounwind uwtable
define internal i32 @tas(ptr noundef %0) #7 {
  %2 = alloca ptr, align 8
  %3 = alloca i8, align 1
  store ptr %0, ptr %2, align 8
  call void @llvm.lifetime.start.p0(i64 1, ptr %3) #12
  store i8 1, ptr %3, align 1
  %4 = load i8, ptr %3, align 1
  %5 = load ptr, ptr %2, align 8
  %6 = call i8 asm sideeffect "\09lock\09\09\09\0A\09xchgb\09$0,$1\09\0A", "=q,=*m,0,*m,~{memory},~{cc},~{dirflag},~{fpsr},~{flags}"(ptr elementtype(i8) %5, i8 %4, ptr elementtype(i8) %5) #12, !srcloc !13
  store i8 %6, ptr %3, align 1
  %7 = load i8, ptr %3, align 1
  %8 = zext i8 %7 to i32
  call void @llvm.lifetime.end.p0(i64 1, ptr %3) #12
  ret i32 %8
}

; Function Attrs: nounwind uwtable
define dso_local void @ReplicationSlotsComputeRequiredLSN() #0 {
  %1 = alloca i32, align 4
  %2 = alloca i64, align 8
  %3 = alloca ptr, align 8
  %4 = alloca i64, align 8
  %5 = alloca i8, align 1
  %6 = alloca i32, align 4
  call void @llvm.lifetime.start.p0(i64 4, ptr %1) #12
  call void @llvm.lifetime.start.p0(i64 8, ptr %2) #12
  store i64 0, ptr %2, align 8
  %7 = load ptr, ptr @MainLWLockArray, align 8
  %8 = getelementptr inbounds %union.LWLockPadded, ptr %7, i64 37
  %9 = call zeroext i1 @LWLockAcquire(ptr noundef %8, i32 noundef 1)
  store i32 0, ptr %1, align 4
  br label %10

10:                                               ; preds = %70, %0
  %11 = load i32, ptr %1, align 4
  %12 = load i32, ptr @max_replication_slots, align 4
  %13 = icmp slt i32 %11, %12
  br i1 %13, label %14, label %73

14:                                               ; preds = %10
  call void @llvm.lifetime.start.p0(i64 8, ptr %3) #12
  %15 = load ptr, ptr @ReplicationSlotCtl, align 8
  %16 = getelementptr inbounds nuw %struct.ReplicationSlotCtlData, ptr %15, i32 0, i32 0
  %17 = load i32, ptr %1, align 4
  %18 = sext i32 %17 to i64
  %19 = getelementptr inbounds [1 x %struct.ReplicationSlot], ptr %16, i64 0, i64 %18
  store ptr %19, ptr %3, align 8
  call void @llvm.lifetime.start.p0(i64 8, ptr %4) #12
  call void @llvm.lifetime.start.p0(i64 1, ptr %5) #12
  %20 = load ptr, ptr %3, align 8
  %21 = getelementptr inbounds nuw %struct.ReplicationSlot, ptr %20, i32 0, i32 1
  %22 = load i8, ptr %21, align 1, !range !4, !noundef !5
  %23 = trunc i8 %22 to i1
  br i1 %23, label %25, label %24

24:                                               ; preds = %14
  store i32 4, ptr %6, align 4
  br label %67

25:                                               ; preds = %14
  %26 = load ptr, ptr %3, align 8
  %27 = getelementptr inbounds nuw %struct.ReplicationSlot, ptr %26, i32 0, i32 0
  %28 = call i32 @tas(ptr noundef %27)
  %29 = icmp ne i32 %28, 0
  br i1 %29, label %30, label %34

30:                                               ; preds = %25
  %31 = load ptr, ptr %3, align 8
  %32 = getelementptr inbounds nuw %struct.ReplicationSlot, ptr %31, i32 0, i32 0
  %33 = call i32 @s_lock(ptr noundef %32, ptr noundef @.str.6, i32 noundef 1154, ptr noundef @__func__.ReplicationSlotsComputeRequiredLSN)
  br label %35

34:                                               ; preds = %25
  br label %35

35:                                               ; preds = %34, %30
  %36 = load ptr, ptr %3, align 8
  %37 = getelementptr inbounds nuw %struct.ReplicationSlot, ptr %36, i32 0, i32 7
  %38 = getelementptr inbounds nuw %struct.ReplicationSlotPersistentData, ptr %37, i32 0, i32 5
  %39 = load i64, ptr %38, align 8
  store i64 %39, ptr %4, align 8
  %40 = load ptr, ptr %3, align 8
  %41 = getelementptr inbounds nuw %struct.ReplicationSlot, ptr %40, i32 0, i32 7
  %42 = getelementptr inbounds nuw %struct.ReplicationSlotPersistentData, ptr %41, i32 0, i32 6
  %43 = load i32, ptr %42, align 8
  %44 = icmp ne i32 %43, 0
  %45 = zext i1 %44 to i8
  store i8 %45, ptr %5, align 1
  br label %46

46:                                               ; preds = %35
  call void asm sideeffect "", "~{memory},~{dirflag},~{fpsr},~{flags}"() #12, !srcloc !32
  %47 = load ptr, ptr %3, align 8
  %48 = getelementptr inbounds nuw %struct.ReplicationSlot, ptr %47, i32 0, i32 0
  store i8 0, ptr %48, align 8
  br label %49

49:                                               ; preds = %46
  br label %50

50:                                               ; preds = %49
  %51 = load i8, ptr %5, align 1, !range !4, !noundef !5
  %52 = trunc i8 %51 to i1
  br i1 %52, label %53, label %54

53:                                               ; preds = %50
  store i32 4, ptr %6, align 4
  br label %67

54:                                               ; preds = %50
  %55 = load i64, ptr %4, align 8
  %56 = icmp ne i64 %55, 0
  br i1 %56, label %57, label %66

57:                                               ; preds = %54
  %58 = load i64, ptr %2, align 8
  %59 = icmp eq i64 %58, 0
  br i1 %59, label %64, label %60

60:                                               ; preds = %57
  %61 = load i64, ptr %4, align 8
  %62 = load i64, ptr %2, align 8
  %63 = icmp ult i64 %61, %62
  br i1 %63, label %64, label %66

64:                                               ; preds = %60, %57
  %65 = load i64, ptr %4, align 8
  store i64 %65, ptr %2, align 8
  br label %66

66:                                               ; preds = %64, %60, %54
  store i32 0, ptr %6, align 4
  br label %67

67:                                               ; preds = %66, %53, %24
  call void @llvm.lifetime.end.p0(i64 1, ptr %5) #12
  call void @llvm.lifetime.end.p0(i64 8, ptr %4) #12
  call void @llvm.lifetime.end.p0(i64 8, ptr %3) #12
  %68 = load i32, ptr %6, align 4
  switch i32 %68, label %77 [
    i32 0, label %69
    i32 4, label %70
  ]

69:                                               ; preds = %67
  br label %70

70:                                               ; preds = %69, %67
  %71 = load i32, ptr %1, align 4
  %72 = add i32 %71, 1
  store i32 %72, ptr %1, align 4
  br label %10, !llvm.loop !33

73:                                               ; preds = %10
  %74 = load ptr, ptr @MainLWLockArray, align 8
  %75 = getelementptr inbounds %union.LWLockPadded, ptr %74, i64 37
  call void @LWLockRelease(ptr noundef %75)
  %76 = load i64, ptr %2, align 8
  call void @XLogSetReplicationSlotMinimumLSN(i64 noundef %76)
  call void @llvm.lifetime.end.p0(i64 8, ptr %2) #12
  call void @llvm.lifetime.end.p0(i64 4, ptr %1) #12
  ret void

77:                                               ; preds = %67
  unreachable
}