; Function Attrs: nounwind uwtable
define dso_local void @ReplicationSlotsComputeRequiredLSN() local_unnamed_addr #0 {
  %1 = load ptr, ptr @MainLWLockArray, align 8
  %2 = getelementptr inbounds nuw i8, ptr %1, i64 4736
  %3 = tail call zeroext i1 @LWLockAcquire(ptr noundef nonnull %2, i32 noundef 1) #17
  %4 = load i32, ptr @max_replication_slots, align 4
  %5 = icmp sgt i32 %4, 0
  br i1 %5, label %.lr.ph.preheader, label %._crit_edge

.lr.ph.preheader:                                 ; preds = %0
  %.pre23 = load ptr, ptr @ReplicationSlotCtl, align 8
  br label %.lr.ph

.lr.ph:                                           ; preds = %.lr.ph.preheader, %23
  %6 = phi ptr [ %.pre23, %.lr.ph.preheader ], [ %24, %23 ]
  %indvars.iv = phi i64 [ 0, %.lr.ph.preheader ], [ %indvars.iv.next, %23 ]
  %.01520 = phi i64 [ 0, %.lr.ph.preheader ], [ %.1, %23 ]
  %7 = getelementptr inbounds nuw [1 x %struct.ReplicationSlot], ptr %6, i64 0, i64 %indvars.iv
  %8 = getelementptr inbounds nuw i8, ptr %7, i64 1
  %9 = load i8, ptr %8, align 1, !range !4, !noundef !5
  %10 = trunc nuw i8 %9 to i1
  br i1 %10, label %11, label %23

11:                                               ; preds = %.lr.ph
  %12 = tail call i8 asm sideeffect "\09lock\09\09\09\0A\09xchgb\09$0,$1\09\0A", "=q,=*m,0,*m,~{memory},~{cc},~{dirflag},~{fpsr},~{flags}"(ptr nonnull elementtype(i8) %7, i8 1, ptr nonnull elementtype(i8) %7) #17, !srcloc !11
  %.not = icmp eq i8 %12, 0
  br i1 %.not, label %15, label %13

13:                                               ; preds = %11
  %14 = tail call i32 @s_lock(ptr noundef nonnull %7, ptr noundef nonnull @.str.6, i32 noundef 1154, ptr noundef nonnull @__func__.ReplicationSlotsComputeRequiredLSN) #17
  br label %15

15:                                               ; preds = %11, %13
  %16 = getelementptr inbounds nuw i8, ptr %7, i64 104
  %17 = load i64, ptr %16, align 8
  %18 = freeze i64 %17
  %19 = getelementptr inbounds nuw i8, ptr %7, i64 112
  %20 = load i32, ptr %19, align 8
  %.not17 = icmp ne i32 %20, 0
  tail call void asm sideeffect "", "~{memory},~{dirflag},~{fpsr},~{flags}"() #17, !srcloc !31
  store i8 0, ptr %7, align 8
  %.not18 = icmp eq i64 %18, 0
  %or.cond19 = or i1 %.not17, %.not18
  %.pre = load ptr, ptr @ReplicationSlotCtl, align 8
  br i1 %or.cond19, label %23, label %21

21:                                               ; preds = %15
  %22 = add i64 %.01520, -1
  %or.cond.not = icmp ult i64 %22, %18
  %spec.select = select i1 %or.cond.not, i64 %.01520, i64 %18
  br label %23

23:                                               ; preds = %21, %15, %.lr.ph
  %24 = phi ptr [ %6, %.lr.ph ], [ %.pre, %15 ], [ %.pre, %21 ]
  %.1 = phi i64 [ %.01520, %.lr.ph ], [ %.01520, %15 ], [ %spec.select, %21 ]
  %indvars.iv.next = add nuw nsw i64 %indvars.iv, 1
  %25 = load i32, ptr @max_replication_slots, align 4
  %26 = sext i32 %25 to i64
  %27 = icmp slt i64 %indvars.iv.next, %26
  br i1 %27, label %.lr.ph, label %._crit_edge, !llvm.loop !32

._crit_edge:                                      ; preds = %23, %0
  %.015.lcssa = phi i64 [ 0, %0 ], [ %.1, %23 ]
  %28 = load ptr, ptr @MainLWLockArray, align 8
  %29 = getelementptr inbounds nuw i8, ptr %28, i64 4736
  tail call void @LWLockRelease(ptr noundef nonnull %29) #17
  tail call void @XLogSetReplicationSlotMinimumLSN(i64 noundef %.015.lcssa) #17
  ret void
}